target datalayout = "e-m:e-p270:32:32-p271:32:32-p272:64:64-i64:64-i128:128-f80:128-n8:16:32:64-S128"
target triple = "x86_64-pc-linux-gnu"

%struct.archive_write = type { %struct.archive, i32, i64, i64, ptr, i64, ptr, ptr, ptr, ptr, ptr, i32, i32, ptr, ptr, ptr, ptr, ptr, ptr, ptr, ptr, ptr, ptr, ptr, ptr, ptr, ptr }
%struct.archive = type { i32, i32, ptr, i32, ptr, i32, i32, ptr, %struct.archive_string, ptr, i32, i32, ptr, ptr, i64, i64, i64, i8, i64 }
%struct.archive_string = type { ptr, i64, i64 }
%struct.shar = type { i32, i32, ptr, i32, ptr, [45 x i8], i64, i32, %struct.archive_string, %struct.archive_string }

@.str.34 = private unnamed_addr constant [6 x i8] c"exit\0A\00", align 1

; Function Attrs: nounwind uwtable
define internal i32 @archive_write_shar_close(ptr noundef %0) #0 {
  %2 = alloca i32, align 4
  %3 = alloca ptr, align 8
  %4 = alloca ptr, align 8
  %5 = alloca i32, align 4
  %6 = alloca i32, align 4
  store ptr %0, ptr %3, align 8, !tbaa !9
  call void @llvm.lifetime.start.p0(i64 8, ptr %4) #7
  call void @llvm.lifetime.start.p0(i64 4, ptr %5) #7
  %7 = load ptr, ptr %3, align 8, !tbaa !9
  %8 = getelementptr inbounds nuw %struct.archive_write, ptr %7, i32 0, i32 15
  %9 = load ptr, ptr %8, align 8, !tbaa !32
  store ptr %9, ptr %4, align 8, !tbaa !22
  %10 = load ptr, ptr %4, align 8, !tbaa !22
  %11 = getelementptr inbounds nuw %struct.shar, ptr %10, i32 0, i32 7
  %12 = load i32, ptr %11, align 8, !tbaa !41
  %13 = icmp eq i32 %12, 0
  br i1 %13, label %14, label %15

14:                                               ; preds = %1
  store i32 0, ptr %2, align 4
  store i32 1, ptr %6, align 4
  br label %36

15:                                               ; preds = %1
  %16 = load ptr, ptr %4, align 8, !tbaa !22
  %17 = getelementptr inbounds nuw %struct.shar, ptr %16, i32 0, i32 8
  %18 = call ptr @archive_strcat(ptr noundef %17, ptr noundef @.str.34)
  %19 = load ptr, ptr %3, align 8, !tbaa !9
  %20 = load ptr, ptr %4, align 8, !tbaa !22
  %21 = getelementptr inbounds nuw %struct.shar, ptr %20, i32 0, i32 8
  %22 = getelementptr inbounds nuw %struct.archive_string, ptr %21, i32 0, i32 0
  %23 = load ptr, ptr %22, align 8, !tbaa !24
  %24 = load ptr, ptr %4, align 8, !tbaa !22
  %25 = getelementptr inbounds nuw %struct.shar, ptr %24, i32 0, i32 8
  %26 = getelementptr inbounds nuw %struct.archive_string, ptr %25, i32 0, i32 1
  %27 = load i64, ptr %26, align 8, !tbaa !27
  %28 = call i32 @__archive_write_output(ptr noundef %19, ptr noundef %23, i64 noundef %27)
  store i32 %28, ptr %5, align 4, !tbaa !11
  %29 = load i32, ptr %5, align 4, !tbaa !11
  %30 = icmp ne i32 %29, 0
  br i1 %30, label %31, label %32

31:                                               ; preds = %15
  store i32 -30, ptr %2, align 4
  store i32 1, ptr %6, align 4
  br label %36

32:                                               ; preds = %15
  %33 = load ptr, ptr %3, align 8, !tbaa !9
  %34 = getelementptr inbounds nuw %struct.archive_write, ptr %33, i32 0, i32 0
  %35 = call i32 @archive_write_set_bytes_in_last_block(ptr noundef %34, i32 noundef 1)
  store i32 0, ptr %2, align 4
  store i32 1, ptr %6, align 4
  br label %36

36:                                               ; preds = %32, %31, %14
  call void @llvm.lifetime.end.p0(i64 4, ptr %5) #7
  call void @llvm.lifetime.end.p0(i64 8, ptr %4) #7
  %37 = load i32, ptr %2, align 4
  ret i32 %37
}