; Function Attrs: nounwind uwtable
define internal range(i32 -30, 1) i32 @archive_write_shar_close(ptr noundef %0) #0 {
  %2 = getelementptr inbounds nuw i8, ptr %0, i64 248
  %3 = load ptr, ptr %2, align 8, !tbaa !17
  %4 = getelementptr inbounds nuw i8, ptr %3, i64 88
  %5 = load i32, ptr %4, align 8, !tbaa !25
  %6 = icmp eq i32 %5, 0
  br i1 %6, label %16, label %7

7:                                                ; preds = %1
  %8 = getelementptr inbounds nuw i8, ptr %3, i64 96
  %9 = tail call ptr @archive_strcat(ptr noundef nonnull %8, ptr noundef nonnull @.str.34) #8
  %10 = load ptr, ptr %8, align 8, !tbaa !39
  %11 = getelementptr inbounds nuw i8, ptr %3, i64 104
  %12 = load i64, ptr %11, align 8, !tbaa !40
  %13 = tail call i32 @__archive_write_output(ptr noundef nonnull %0, ptr noundef %10, i64 noundef %12) #8
  %.not = icmp eq i32 %13, 0
  br i1 %.not, label %14, label %16

14:                                               ; preds = %7
  %15 = tail call i32 @archive_write_set_bytes_in_last_block(ptr noundef nonnull %0, i32 noundef 1) #8
  br label %16

16:                                               ; preds = %7, %1, %14
  %.0 = phi i32 [ 0, %14 ], [ 0, %1 ], [ -30, %7 ]
  ret i32 %.0
}